; Function Attrs: nounwind uwtable
define range(i32 0, 2) i32 @ossl_decoder_fast_is_a(ptr noundef readonly captures(address_is_null) %0, ptr noundef %1, ptr noundef captures(none) %2) local_unnamed_addr #2 {
  %4 = load i32, ptr %2, align 4, !tbaa !50
  %5 = icmp slt i32 %4, 1
  br i1 %5, label %6, label %11

6:                                                ; preds = %3
  %.val = load ptr, ptr %0, align 8, !tbaa !16
  %7 = tail call ptr @ossl_provider_libctx(ptr noundef %.val) #8
  %8 = tail call ptr @ossl_namemap_stored(ptr noundef %7) #8
  %9 = tail call i32 @ossl_namemap_name2num(ptr noundef %8, ptr noundef %1) #8
  store i32 %9, ptr %2, align 4, !tbaa !50
  %10 = icmp sgt i32 %9, 0
  br i1 %10, label %.thread10, label %17

11:                                               ; preds = %3
  %.not.i = icmp eq ptr %0, null
  br i1 %.not.i, label %12, label %.thread10, !prof !51

12:                                               ; preds = %11
  tail call void @ERR_new() #8
  tail call void @ERR_set_debug(ptr noundef nonnull @.str, i32 noundef 498, ptr noundef nonnull @__func__.ossl_decoder_get_number) #8
  tail call void (i32, i32, ptr, ...) @ERR_set_error(i32 noundef 60, i32 noundef 786690, ptr noundef null) #8
  br label %ossl_decoder_get_number.exit

.thread10:                                        ; preds = %6, %11
  %.0914 = phi i32 [ %4, %11 ], [ %9, %6 ]
  %13 = getelementptr inbounds nuw i8, ptr %0, i64 8
  %14 = load i32, ptr %13, align 8, !tbaa !21
  br label %ossl_decoder_get_number.exit

ossl_decoder_get_number.exit:                     ; preds = %12, %.thread10
  %.0913 = phi i32 [ %.0914, %.thread10 ], [ %4, %12 ]
  %.0.i = phi i32 [ %14, %.thread10 ], [ 0, %12 ]
  %15 = icmp eq i32 %.0.i, %.0913
  %16 = zext i1 %15 to i32
  br label %17

17:                                               ; preds = %ossl_decoder_get_number.exit, %6
  %18 = phi i32 [ 0, %6 ], [ %16, %ossl_decoder_get_number.exit ]
  ret i32 %18
}